target datalayout = "e-m:e-p270:32:32-p271:32:32-p272:64:64-i64:64-i128:128-f80:128-n8:16:32:64-S128"
target triple = "x86_64-pc-linux-gnu"

%struct.cavs_vector = type { i16, i16, i16, i16 }
%struct.AVSContext = type { ptr, %struct.BlockDSPContext, %struct.H264ChromaContext, %struct.VideoDSPContext, %struct.CAVSDSPContext, %struct.GetBitContext, %struct.AVSFrame, [2 x %struct.AVSFrame], [2 x i32], i32, i32, i32, i32, i32, i32, i32, i32, i32, i32, i32, i32, i32, i32, i32, i32, i32, i32, i32, i32, i32, ptr, ptr, ptr, i32, ptr, [24 x %struct.cavs_vector], [2 x ptr], ptr, [9 x i32], ptr, i64, i64, [4 x i32], i32, i32, i32, i32, [64 x i8], ptr, ptr, ptr, [26 x i8], [10 x i8], [10 x i8], [26 x i8], i8, i8, i8, [8 x ptr], [7 x ptr], ptr, i32, [2 x i32], [2 x i32], ptr, i32, ptr }
%struct.BlockDSPContext = type { ptr, ptr, [2 x ptr] }
%struct.H264ChromaContext = type { [4 x ptr], [4 x ptr] }
%struct.VideoDSPContext = type { ptr, ptr }
%struct.CAVSDSPContext = type { [2 x [16 x ptr]], [2 x [16 x ptr]], ptr, ptr, ptr, ptr, ptr, i32 }
%struct.GetBitContext = type { ptr, ptr, i32, i32, i32 }
%struct.AVSFrame = type { ptr, i32 }
%struct.AVFrame = type { [8 x ptr], [8 x i32], ptr, i32, i32, i32, i32, i32, %struct.AVRational, i64, i64, %struct.AVRational, i32, ptr, i32, i32, [8 x ptr], ptr, i32, ptr, i32, i32, i32, i32, i32, i32, i32, i64, ptr, i32, ptr, ptr, i64, i64, i64, i64, ptr, %struct.AVChannelLayout, i64 }
%struct.AVRational = type { i32, i32 }
%struct.AVChannelLayout = type { i32, i32, %union.anon, ptr }
%union.anon = type { i64 }

@un_mv = internal constant %struct.cavs_vector { i16 0, i16 0, i16 1, i16 -1 }, align 2

; Function Attrs: nounwind uwtable
define i32 @ff_cavs_next_mb(ptr noundef %0) #0 {
  %2 = alloca i32, align 4
  %3 = alloca ptr, align 8
  %4 = alloca i32, align 4
  %5 = alloca i32, align 4
  store ptr %0, ptr %3, align 8, !tbaa !4
  call void @llvm.lifetime.start.p0(i64 4, ptr %4) #10
  %6 = load ptr, ptr %3, align 8, !tbaa !4
  %7 = getelementptr inbounds nuw %struct.AVSContext, ptr %6, i32 0, i32 28
  %8 = load i32, ptr %7, align 4, !tbaa !41
  %9 = or i32 %8, 1
  store i32 %9, ptr %7, align 4, !tbaa !41
  %10 = load ptr, ptr %3, align 8, !tbaa !4
  %11 = getelementptr inbounds nuw %struct.AVSContext, ptr %10, i32 0, i32 30
  %12 = load ptr, ptr %11, align 8, !tbaa !33
  %13 = getelementptr inbounds i8, ptr %12, i64 16
  store ptr %13, ptr %11, align 8, !tbaa !33
  %14 = load ptr, ptr %3, align 8, !tbaa !4
  %15 = getelementptr inbounds nuw %struct.AVSContext, ptr %14, i32 0, i32 31
  %16 = load ptr, ptr %15, align 8, !tbaa !35
  %17 = getelementptr inbounds i8, ptr %16, i64 8
  store ptr %17, ptr %15, align 8, !tbaa !35
  %18 = load ptr, ptr %3, align 8, !tbaa !4
  %19 = getelementptr inbounds nuw %struct.AVSContext, ptr %18, i32 0, i32 32
  %20 = load ptr, ptr %19, align 8, !tbaa !37
  %21 = getelementptr inbounds i8, ptr %20, i64 8
  store ptr %21, ptr %19, align 8, !tbaa !37
  store i32 0, ptr %4, align 4, !tbaa !9
  br label %22

22:                                               ; preds = %37, %1
  %23 = load i32, ptr %4, align 4, !tbaa !9
  %24 = icmp sle i32 %23, 20
  br i1 %24, label %25, label %40

25:                                               ; preds = %22
  %26 = load ptr, ptr %3, align 8, !tbaa !4
  %27 = getelementptr inbounds nuw %struct.AVSContext, ptr %26, i32 0, i32 35
  %28 = load i32, ptr %4, align 4, !tbaa !9
  %29 = sext i32 %28 to i64
  %30 = getelementptr inbounds [24 x %struct.cavs_vector], ptr %27, i64 0, i64 %29
  %31 = load ptr, ptr %3, align 8, !tbaa !4
  %32 = getelementptr inbounds nuw %struct.AVSContext, ptr %31, i32 0, i32 35
  %33 = load i32, ptr %4, align 4, !tbaa !9
  %34 = add nsw i32 %33, 2
  %35 = sext i32 %34 to i64
  %36 = getelementptr inbounds [24 x %struct.cavs_vector], ptr %32, i64 0, i64 %35
  call void @llvm.memcpy.p0.p0.i64(ptr align 8 %30, ptr align 8 %36, i64 8, i1 false), !tbaa.struct !77
  br label %37

37:                                               ; preds = %25
  %38 = load i32, ptr %4, align 4, !tbaa !9
  %39 = add nsw i32 %38, 4
  store i32 %39, ptr %4, align 4, !tbaa !9
  br label %22, !llvm.loop !81

40:                                               ; preds = %22
  %41 = load ptr, ptr %3, align 8, !tbaa !4
  %42 = getelementptr inbounds nuw %struct.AVSContext, ptr %41, i32 0, i32 36
  %43 = getelementptr inbounds [2 x ptr], ptr %42, i64 0, i64 0
  %44 = load ptr, ptr %43, align 8, !tbaa !51
  %45 = load ptr, ptr %3, align 8, !tbaa !4
  %46 = getelementptr inbounds nuw %struct.AVSContext, ptr %45, i32 0, i32 25
  %47 = load i32, ptr %46, align 8, !tbaa !26
  %48 = mul nsw i32 %47, 2
  %49 = add nsw i32 %48, 0
  %50 = sext i32 %49 to i64
  %51 = getelementptr inbounds %struct.cavs_vector, ptr %44, i64 %50
  %52 = load ptr, ptr %3, align 8, !tbaa !4
  %53 = getelementptr inbounds nuw %struct.AVSContext, ptr %52, i32 0, i32 35
  %54 = getelementptr inbounds [24 x %struct.cavs_vector], ptr %53, i64 0, i64 9
  call void @llvm.memcpy.p0.p0.i64(ptr align 2 %51, ptr align 8 %54, i64 8, i1 false), !tbaa.struct !77
  %55 = load ptr, ptr %3, align 8, !tbaa !4
  %56 = getelementptr inbounds nuw %struct.AVSContext, ptr %55, i32 0, i32 36
  %57 = getelementptr inbounds [2 x ptr], ptr %56, i64 0, i64 0
  %58 = load ptr, ptr %57, align 8, !tbaa !51
  %59 = load ptr, ptr %3, align 8, !tbaa !4
  %60 = getelementptr inbounds nuw %struct.AVSContext, ptr %59, i32 0, i32 25
  %61 = load i32, ptr %60, align 8, !tbaa !26
  %62 = mul nsw i32 %61, 2
  %63 = add nsw i32 %62, 1
  %64 = sext i32 %63 to i64
  %65 = getelementptr inbounds %struct.cavs_vector, ptr %58, i64 %64
  %66 = load ptr, ptr %3, align 8, !tbaa !4
  %67 = getelementptr inbounds nuw %struct.AVSContext, ptr %66, i32 0, i32 35
  %68 = getelementptr inbounds [24 x %struct.cavs_vector], ptr %67, i64 0, i64 10
  call void @llvm.memcpy.p0.p0.i64(ptr align 2 %65, ptr align 8 %68, i64 8, i1 false), !tbaa.struct !77
  %69 = load ptr, ptr %3, align 8, !tbaa !4
  %70 = getelementptr inbounds nuw %struct.AVSContext, ptr %69, i32 0, i32 36
  %71 = getelementptr inbounds [2 x ptr], ptr %70, i64 0, i64 1
  %72 = load ptr, ptr %71, align 8, !tbaa !51
  %73 = load ptr, ptr %3, align 8, !tbaa !4
  %74 = getelementptr inbounds nuw %struct.AVSContext, ptr %73, i32 0, i32 25
  %75 = load i32, ptr %74, align 8, !tbaa !26
  %76 = mul nsw i32 %75, 2
  %77 = add nsw i32 %76, 0
  %78 = sext i32 %77 to i64
  %79 = getelementptr inbounds %struct.cavs_vector, ptr %72, i64 %78
  %80 = load ptr, ptr %3, align 8, !tbaa !4
  %81 = getelementptr inbounds nuw %struct.AVSContext, ptr %80, i32 0, i32 35
  %82 = getelementptr inbounds [24 x %struct.cavs_vector], ptr %81, i64 0, i64 21
  call void @llvm.memcpy.p0.p0.i64(ptr align 2 %79, ptr align 8 %82, i64 8, i1 false), !tbaa.struct !77
  %83 = load ptr, ptr %3, align 8, !tbaa !4
  %84 = getelementptr inbounds nuw %struct.AVSContext, ptr %83, i32 0, i32 36
  %85 = getelementptr inbounds [2 x ptr], ptr %84, i64 0, i64 1
  %86 = load ptr, ptr %85, align 8, !tbaa !51
  %87 = load ptr, ptr %3, align 8, !tbaa !4
  %88 = getelementptr inbounds nuw %struct.AVSContext, ptr %87, i32 0, i32 25
  %89 = load i32, ptr %88, align 8, !tbaa !26
  %90 = mul nsw i32 %89, 2
  %91 = add nsw i32 %90, 1
  %92 = sext i32 %91 to i64
  %93 = getelementptr inbounds %struct.cavs_vector, ptr %86, i64 %92
  %94 = load ptr, ptr %3, align 8, !tbaa !4
  %95 = getelementptr inbounds nuw %struct.AVSContext, ptr %94, i32 0, i32 35
  %96 = getelementptr inbounds [24 x %struct.cavs_vector], ptr %95, i64 0, i64 22
  call void @llvm.memcpy.p0.p0.i64(ptr align 2 %93, ptr align 8 %96, i64 8, i1 false), !tbaa.struct !77
  %97 = load ptr, ptr %3, align 8, !tbaa !4
  %98 = getelementptr inbounds nuw %struct.AVSContext, ptr %97, i32 0, i32 27
  %99 = load i32, ptr %98, align 8, !tbaa !82
  %100 = add nsw i32 %99, 1
  store i32 %100, ptr %98, align 8, !tbaa !82
  %101 = load ptr, ptr %3, align 8, !tbaa !4
  %102 = getelementptr inbounds nuw %struct.AVSContext, ptr %101, i32 0, i32 25
  %103 = load i32, ptr %102, align 8, !tbaa !26
  %104 = add nsw i32 %103, 1
  store i32 %104, ptr %102, align 8, !tbaa !26
  %105 = load ptr, ptr %3, align 8, !tbaa !4
  %106 = getelementptr inbounds nuw %struct.AVSContext, ptr %105, i32 0, i32 25
  %107 = load i32, ptr %106, align 8, !tbaa !26
  %108 = load ptr, ptr %3, align 8, !tbaa !4
  %109 = getelementptr inbounds nuw %struct.AVSContext, ptr %108, i32 0, i32 13
  %110 = load i32, ptr %109, align 8, !tbaa !80
  %111 = icmp eq i32 %107, %110
  br i1 %111, label %112, label %206

112:                                              ; preds = %40
  %113 = load ptr, ptr %3, align 8, !tbaa !4
  %114 = getelementptr inbounds nuw %struct.AVSContext, ptr %113, i32 0, i32 28
  store i32 6, ptr %114, align 4, !tbaa !41
  %115 = load ptr, ptr %3, align 8, !tbaa !4
  %116 = getelementptr inbounds nuw %struct.AVSContext, ptr %115, i32 0, i32 38
  %117 = getelementptr inbounds [9 x i32], ptr %116, i64 0, i64 6
  store i32 -1, ptr %117, align 8, !tbaa !9
  %118 = load ptr, ptr %3, align 8, !tbaa !4
  %119 = getelementptr inbounds nuw %struct.AVSContext, ptr %118, i32 0, i32 38
  %120 = getelementptr inbounds [9 x i32], ptr %119, i64 0, i64 3
  store i32 -1, ptr %120, align 4, !tbaa !9
  store i32 0, ptr %4, align 4, !tbaa !9
  br label %121

121:                                              ; preds = %130, %112
  %122 = load i32, ptr %4, align 4, !tbaa !9
  %123 = icmp sle i32 %122, 20
  br i1 %123, label %124, label %133

124:                                              ; preds = %121
  %125 = load ptr, ptr %3, align 8, !tbaa !4
  %126 = getelementptr inbounds nuw %struct.AVSContext, ptr %125, i32 0, i32 35
  %127 = load i32, ptr %4, align 4, !tbaa !9
  %128 = sext i32 %127 to i64
  %129 = getelementptr inbounds [24 x %struct.cavs_vector], ptr %126, i64 0, i64 %128
  call void @llvm.memcpy.p0.p0.i64(ptr align 8 %129, ptr align 2 @un_mv, i64 8, i1 false), !tbaa.struct !77
  br label %130

130:                                              ; preds = %124
  %131 = load i32, ptr %4, align 4, !tbaa !9
  %132 = add nsw i32 %131, 4
  store i32 %132, ptr %4, align 4, !tbaa !9
  br label %121, !llvm.loop !83

133:                                              ; preds = %121
  %134 = load ptr, ptr %3, align 8, !tbaa !4
  %135 = getelementptr inbounds nuw %struct.AVSContext, ptr %134, i32 0, i32 25
  store i32 0, ptr %135, align 8, !tbaa !26
  %136 = load ptr, ptr %3, align 8, !tbaa !4
  %137 = getelementptr inbounds nuw %struct.AVSContext, ptr %136, i32 0, i32 26
  %138 = load i32, ptr %137, align 4, !tbaa !67
  %139 = add nsw i32 %138, 1
  store i32 %139, ptr %137, align 4, !tbaa !67
  %140 = load ptr, ptr %3, align 8, !tbaa !4
  %141 = getelementptr inbounds nuw %struct.AVSContext, ptr %140, i32 0, i32 6
  %142 = getelementptr inbounds nuw %struct.AVSFrame, ptr %141, i32 0, i32 0
  %143 = load ptr, ptr %142, align 8, !tbaa !84
  %144 = getelementptr inbounds nuw %struct.AVFrame, ptr %143, i32 0, i32 0
  %145 = getelementptr inbounds [8 x ptr], ptr %144, i64 0, i64 0
  %146 = load ptr, ptr %145, align 8, !tbaa !57
  %147 = load ptr, ptr %3, align 8, !tbaa !4
  %148 = getelementptr inbounds nuw %struct.AVSContext, ptr %147, i32 0, i32 26
  %149 = load i32, ptr %148, align 4, !tbaa !67
  %150 = mul nsw i32 %149, 16
  %151 = sext i32 %150 to i64
  %152 = load ptr, ptr %3, align 8, !tbaa !4
  %153 = getelementptr inbounds nuw %struct.AVSContext, ptr %152, i32 0, i32 40
  %154 = load i64, ptr %153, align 8, !tbaa !34
  %155 = mul nsw i64 %151, %154
  %156 = getelementptr inbounds i8, ptr %146, i64 %155
  %157 = load ptr, ptr %3, align 8, !tbaa !4
  %158 = getelementptr inbounds nuw %struct.AVSContext, ptr %157, i32 0, i32 30
  store ptr %156, ptr %158, align 8, !tbaa !33
  %159 = load ptr, ptr %3, align 8, !tbaa !4
  %160 = getelementptr inbounds nuw %struct.AVSContext, ptr %159, i32 0, i32 6
  %161 = getelementptr inbounds nuw %struct.AVSFrame, ptr %160, i32 0, i32 0
  %162 = load ptr, ptr %161, align 8, !tbaa !84
  %163 = getelementptr inbounds nuw %struct.AVFrame, ptr %162, i32 0, i32 0
  %164 = getelementptr inbounds [8 x ptr], ptr %163, i64 0, i64 1
  %165 = load ptr, ptr %164, align 8, !tbaa !57
  %166 = load ptr, ptr %3, align 8, !tbaa !4
  %167 = getelementptr inbounds nuw %struct.AVSContext, ptr %166, i32 0, i32 26
  %168 = load i32, ptr %167, align 4, !tbaa !67
  %169 = mul nsw i32 %168, 8
  %170 = sext i32 %169 to i64
  %171 = load ptr, ptr %3, align 8, !tbaa !4
  %172 = getelementptr inbounds nuw %struct.AVSContext, ptr %171, i32 0, i32 41
  %173 = load i64, ptr %172, align 8, !tbaa !36
  %174 = mul nsw i64 %170, %173
  %175 = getelementptr inbounds i8, ptr %165, i64 %174
  %176 = load ptr, ptr %3, align 8, !tbaa !4
  %177 = getelementptr inbounds nuw %struct.AVSContext, ptr %176, i32 0, i32 31
  store ptr %175, ptr %177, align 8, !tbaa !35
  %178 = load ptr, ptr %3, align 8, !tbaa !4
  %179 = getelementptr inbounds nuw %struct.AVSContext, ptr %178, i32 0, i32 6
  %180 = getelementptr inbounds nuw %struct.AVSFrame, ptr %179, i32 0, i32 0
  %181 = load ptr, ptr %180, align 8, !tbaa !84
  %182 = getelementptr inbounds nuw %struct.AVFrame, ptr %181, i32 0, i32 0
  %183 = getelementptr inbounds [8 x ptr], ptr %182, i64 0, i64 2
  %184 = load ptr, ptr %183, align 8, !tbaa !57
  %185 = load ptr, ptr %3, align 8, !tbaa !4
  %186 = getelementptr inbounds nuw %struct.AVSContext, ptr %185, i32 0, i32 26
  %187 = load i32, ptr %186, align 4, !tbaa !67
  %188 = mul nsw i32 %187, 8
  %189 = sext i32 %188 to i64
  %190 = load ptr, ptr %3, align 8, !tbaa !4
  %191 = getelementptr inbounds nuw %struct.AVSContext, ptr %190, i32 0, i32 41
  %192 = load i64, ptr %191, align 8, !tbaa !36
  %193 = mul nsw i64 %189, %192
  %194 = getelementptr inbounds i8, ptr %184, i64 %193
  %195 = load ptr, ptr %3, align 8, !tbaa !4
  %196 = getelementptr inbounds nuw %struct.AVSContext, ptr %195, i32 0, i32 32
  store ptr %194, ptr %196, align 8, !tbaa !37
  %197 = load ptr, ptr %3, align 8, !tbaa !4
  %198 = getelementptr inbounds nuw %struct.AVSContext, ptr %197, i32 0, i32 26
  %199 = load i32, ptr %198, align 4, !tbaa !67
  %200 = load ptr, ptr %3, align 8, !tbaa !4
  %201 = getelementptr inbounds nuw %struct.AVSContext, ptr %200, i32 0, i32 14
  %202 = load i32, ptr %201, align 4, !tbaa !85
  %203 = icmp eq i32 %199, %202
  br i1 %203, label %204, label %205

204:                                              ; preds = %133
  store i32 0, ptr %2, align 4
  store i32 1, ptr %5, align 4
  br label %207

205:                                              ; preds = %133
  br label %206

206:                                              ; preds = %205, %40
  store i32 1, ptr %2, align 4
  store i32 1, ptr %5, align 4
  br label %207

207:                                              ; preds = %206, %204
  call void @llvm.lifetime.end.p0(i64 4, ptr %4) #10
  %208 = load i32, ptr %2, align 4
  ret i32 %208
}