; Function Attrs: nofree norecurse nosync nounwind memory(readwrite, inaccessiblemem: none) uwtable
define range(i32 0, 2) i32 @ff_cavs_next_mb(ptr noundef captures(none) %0) local_unnamed_addr #4 {
  %2 = getelementptr inbounds nuw i8, ptr %0, i64 844
  %3 = load i32, ptr %2, align 4, !tbaa !43
  %4 = or i32 %3, 1
  store i32 %4, ptr %2, align 4, !tbaa !43
  %5 = getelementptr inbounds nuw i8, ptr %0, i64 856
  %6 = load ptr, ptr %5, align 8, !tbaa !30
  %7 = getelementptr inbounds nuw i8, ptr %6, i64 16
  store ptr %7, ptr %5, align 8, !tbaa !30
  %8 = getelementptr inbounds nuw i8, ptr %0, i64 864
  %9 = load ptr, ptr %8, align 8, !tbaa !32
  %10 = getelementptr inbounds nuw i8, ptr %9, i64 8
  store ptr %10, ptr %8, align 8, !tbaa !32
  %11 = getelementptr inbounds nuw i8, ptr %0, i64 872
  %12 = load ptr, ptr %11, align 8, !tbaa !34
  %13 = getelementptr inbounds nuw i8, ptr %12, i64 8
  store ptr %13, ptr %11, align 8, !tbaa !34
  %14 = getelementptr inbounds nuw i8, ptr %0, i64 896
  br label %15

15:                                               ; preds = %1, %15
  %indvars.iv = phi i64 [ 0, %1 ], [ %indvars.iv.next, %15 ]
  %16 = getelementptr inbounds nuw [24 x %struct.cavs_vector], ptr %14, i64 0, i64 %indvars.iv
  %17 = or disjoint i64 %indvars.iv, 2
  %18 = getelementptr inbounds nuw [24 x %struct.cavs_vector], ptr %14, i64 0, i64 %17
  %19 = load i64, ptr %18, align 8
  store i64 %19, ptr %16, align 8
  %indvars.iv.next = add nuw nsw i64 %indvars.iv, 4
  %20 = icmp samesign ult i64 %indvars.iv, 17
  br i1 %20, label %15, label %21, !llvm.loop !69

21:                                               ; preds = %15
  %22 = getelementptr inbounds nuw i8, ptr %0, i64 1088
  %23 = load ptr, ptr %22, align 8, !tbaa !66
  %24 = getelementptr inbounds nuw i8, ptr %0, i64 832
  %25 = load i32, ptr %24, align 8, !tbaa !23
  %26 = shl nsw i32 %25, 1
  %27 = sext i32 %26 to i64
  %28 = getelementptr inbounds %struct.cavs_vector, ptr %23, i64 %27
  %29 = getelementptr inbounds nuw i8, ptr %0, i64 968
  %30 = load i64, ptr %29, align 8
  store i64 %30, ptr %28, align 2
  %31 = load ptr, ptr %22, align 8, !tbaa !66
  %32 = load i32, ptr %24, align 8, !tbaa !23
  %33 = shl nsw i32 %32, 1
  %34 = sext i32 %33 to i64
  %35 = getelementptr %struct.cavs_vector, ptr %31, i64 %34
  %36 = getelementptr i8, ptr %35, i64 8
  %37 = getelementptr inbounds nuw i8, ptr %0, i64 976
  %38 = load i64, ptr %37, align 8
  store i64 %38, ptr %36, align 2
  %39 = getelementptr inbounds nuw i8, ptr %0, i64 1096
  %40 = load ptr, ptr %39, align 8, !tbaa !66
  %41 = load i32, ptr %24, align 8, !tbaa !23
  %42 = shl nsw i32 %41, 1
  %43 = sext i32 %42 to i64
  %44 = getelementptr inbounds %struct.cavs_vector, ptr %40, i64 %43
  %45 = getelementptr inbounds nuw i8, ptr %0, i64 1064
  %46 = load i64, ptr %45, align 8
  store i64 %46, ptr %44, align 2
  %47 = load ptr, ptr %39, align 8, !tbaa !66
  %48 = load i32, ptr %24, align 8, !tbaa !23
  %49 = shl nsw i32 %48, 1
  %50 = sext i32 %49 to i64
  %51 = getelementptr %struct.cavs_vector, ptr %47, i64 %50
  %52 = getelementptr i8, ptr %51, i64 8
  %53 = getelementptr inbounds nuw i8, ptr %0, i64 1072
  %54 = load i64, ptr %53, align 8
  store i64 %54, ptr %52, align 2
  %55 = getelementptr inbounds nuw i8, ptr %0, i64 840
  %56 = load i32, ptr %55, align 8, !tbaa !70
  %57 = add nsw i32 %56, 1
  store i32 %57, ptr %55, align 8, !tbaa !70
  %58 = load i32, ptr %24, align 8, !tbaa !23
  %59 = add nsw i32 %58, 1
  store i32 %59, ptr %24, align 8, !tbaa !23
  %60 = getelementptr inbounds nuw i8, ptr %0, i64 784
  %61 = load i32, ptr %60, align 8, !tbaa !68
  %62 = icmp eq i32 %59, %61
  br i1 %62, label %63, label %96

63:                                               ; preds = %21
  store i32 6, ptr %2, align 4, !tbaa !43
  %64 = getelementptr inbounds nuw i8, ptr %0, i64 1136
  store i32 -1, ptr %64, align 8, !tbaa !56
  %65 = getelementptr inbounds nuw i8, ptr %0, i64 1124
  store i32 -1, ptr %65, align 4, !tbaa !56
  br label %66

66:                                               ; preds = %63, %66
  %indvars.iv53 = phi i64 [ 0, %63 ], [ %indvars.iv.next54, %66 ]
  %67 = getelementptr inbounds nuw [24 x %struct.cavs_vector], ptr %14, i64 0, i64 %indvars.iv53
  store i64 -281470681743360, ptr %67, align 8
  %indvars.iv.next54 = add nuw nsw i64 %indvars.iv53, 4
  %68 = icmp samesign ult i64 %indvars.iv53, 17
  br i1 %68, label %66, label %69, !llvm.loop !71

69:                                               ; preds = %66
  store i32 0, ptr %24, align 8, !tbaa !23
  %70 = getelementptr inbounds nuw i8, ptr %0, i64 836
  %71 = load i32, ptr %70, align 4, !tbaa !59
  %72 = add nsw i32 %71, 1
  store i32 %72, ptr %70, align 4, !tbaa !59
  %73 = getelementptr inbounds nuw i8, ptr %0, i64 712
  %74 = load ptr, ptr %73, align 8, !tbaa !72
  %75 = load ptr, ptr %74, align 8, !tbaa !53
  %76 = shl nsw i32 %72, 4
  %77 = sext i32 %76 to i64
  %78 = getelementptr inbounds nuw i8, ptr %0, i64 1160
  %79 = load i64, ptr %78, align 8, !tbaa !31
  %80 = mul nsw i64 %79, %77
  %81 = getelementptr inbounds i8, ptr %75, i64 %80
  store ptr %81, ptr %5, align 8, !tbaa !30
  %82 = getelementptr inbounds nuw i8, ptr %74, i64 8
  %83 = load ptr, ptr %82, align 8, !tbaa !53
  %84 = shl nsw i32 %72, 3
  %85 = sext i32 %84 to i64
  %86 = getelementptr inbounds nuw i8, ptr %0, i64 1168
  %87 = load i64, ptr %86, align 8, !tbaa !33
  %88 = mul nsw i64 %87, %85
  %89 = getelementptr inbounds i8, ptr %83, i64 %88
  store ptr %89, ptr %8, align 8, !tbaa !32
  %90 = getelementptr inbounds nuw i8, ptr %74, i64 16
  %91 = load ptr, ptr %90, align 8, !tbaa !53
  %92 = getelementptr inbounds i8, ptr %91, i64 %88
  store ptr %92, ptr %11, align 8, !tbaa !34
  %93 = getelementptr inbounds nuw i8, ptr %0, i64 788
  %94 = load i32, ptr %93, align 4, !tbaa !73
  %95 = icmp eq i32 %72, %94
  br i1 %95, label %97, label %96

96:                                               ; preds = %69, %21
  br label %97

97:                                               ; preds = %69, %96
  %.049 = phi i32 [ 1, %96 ], [ 0, %69 ]
  ret i32 %.049
}